target datalayout = "e-m:e-p270:32:32-p271:32:32-p272:64:64-i64:64-i128:128-f80:128-n8:16:32:64-S128"
target triple = "x86_64-pc-linux-gnu"

%struct.anon.0 = type { [8 x i8], i32 }

@.str.24 = private unnamed_addr constant [26 x i8] c"../openssl/test/destest.c\00", align 1
@.str.105 = private unnamed_addr constant [26 x i8] c"DES_check_key_parity(key)\00", align 1
@.str.106 = private unnamed_addr constant [26 x i8] c"bad_parity_keys[n].expect\00", align 1

; Function Attrs: nounwind uwtable
define internal i32 @test_des_check_bad_parity(i32 noundef %0) #0 {
  %2 = alloca i32, align 4
  %3 = alloca ptr, align 8
  store i32 %0, ptr %2, align 4, !tbaa !4
  call void @llvm.lifetime.start.p0(i64 8, ptr %3) #6
  %4 = load i32, ptr %2, align 4, !tbaa !4
  %5 = sext i32 %4 to i64
  %6 = getelementptr inbounds [11 x %struct.anon.0], ptr @bad_parity_keys, i64 0, i64 %5
  %7 = getelementptr inbounds nuw %struct.anon.0, ptr %6, i32 0, i32 0
  %8 = getelementptr inbounds [8 x i8], ptr %7, i64 0, i64 0
  store ptr %8, ptr %3, align 8, !tbaa !22
  %9 = load ptr, ptr %3, align 8, !tbaa !22
  %10 = call i32 @DES_check_key_parity(ptr noundef %9)
  %11 = load i32, ptr %2, align 4, !tbaa !4
  %12 = sext i32 %11 to i64
  %13 = getelementptr inbounds [11 x %struct.anon.0], ptr @bad_parity_keys, i64 0, i64 %12
  %14 = getelementptr inbounds nuw %struct.anon.0, ptr %13, i32 0, i32 1
  %15 = load i32, ptr %14, align 4, !tbaa !24
  %16 = call i32 @test_int_eq(ptr noundef @.str.24, i32 noundef 849, ptr noundef @.str.105, ptr noundef @.str.106, i32 noundef %10, i32 noundef %15)
  call void @llvm.lifetime.end.p0(i64 8, ptr %3) #6
  ret i32 %16
}